target datalayout = "e-m:e-p270:32:32-p271:32:32-p272:64:64-i64:64-i128:128-f80:128-n8:16:32:64-S128"
target triple = "x86_64-pc-linux-gnu"

%"class.cv::Mat" = type { i32, i32, i32, i32, ptr, ptr, ptr, ptr, ptr, ptr, %"struct.cv::MatSize", %"struct.cv::MatStep" }
%"struct.cv::MatSize" = type { ptr }
%"struct.cv::MatStep" = type { ptr, [2 x i64] }
%"class.cv::Rect_" = type { i32, i32, i32, i32 }
%"class.cv::TrackerGOTURNImpl" = type { %"class.cv::TrackerGOTURN", %"class.cv::dnn::dnn4_v20241223::Net", %"class.cv::Rect_", %"class.cv::Mat" }
%"class.cv::TrackerGOTURN" = type { %"class.cv::Tracker" }
%"class.cv::Tracker" = type { ptr }
%"class.cv::dnn::dnn4_v20241223::Net" = type { %"struct.cv::Ptr" }
%"struct.cv::Ptr" = type { %"class.std::shared_ptr" }
%"class.std::shared_ptr" = type { %"class.std::__shared_ptr" }
%"class.std::__shared_ptr" = type { ptr, %"class.std::__shared_count" }
%"class.std::__shared_count" = type { ptr }
%"class.cv::_InputArray" = type { i32, ptr, %"class.cv::Size_" }
%"class.cv::Size_" = type { i32, i32 }

; Function Attrs: inlinehint mustprogress uwtable
define linkonce_odr hidden void @_ZNK2cv11_InputArray6getMatEi(ptr dead_on_unwind noalias writable sret(%"class.cv::Mat") align 8 %0, ptr noundef nonnull align 8 dereferenceable(24) %1, i32 noundef %2) #6 comdat align 2 {
  %4 = alloca ptr, align 8
  %5 = alloca ptr, align 8
  %6 = alloca i32, align 4
  store ptr %0, ptr %4, align 8
  store ptr %1, ptr %5, align 8, !tbaa !18
  store i32 %2, ptr %6, align 4, !tbaa !23
  %7 = load ptr, ptr %5, align 8
  %8 = call noundef i32 @_ZNK2cv11_InputArray4kindEv(ptr noundef nonnull align 8 dereferenceable(24) %7)
  %9 = icmp eq i32 %8, 65536
  br i1 %9, label %10, label %16

10:                                               ; preds = %3
  %11 = load i32, ptr %6, align 4, !tbaa !23
  %12 = icmp slt i32 %11, 0
  br i1 %12, label %13, label %16

13:                                               ; preds = %10
  %14 = getelementptr inbounds nuw %"class.cv::_InputArray", ptr %7, i32 0, i32 1
  %15 = load ptr, ptr %14, align 8, !tbaa !25
  call void @_ZN2cv3MatC1ERKS0_(ptr noundef nonnull align 8 dereferenceable(96) %0, ptr noundef nonnull align 8 dereferenceable(96) %15)
  br label %18

16:                                               ; preds = %10, %3
  %17 = load i32, ptr %6, align 4, !tbaa !23
  call void @_ZNK2cv11_InputArray7getMat_Ei(ptr dead_on_unwind writable sret(%"class.cv::Mat") align 8 %0, ptr noundef nonnull align 8 dereferenceable(24) %7, i32 noundef %17)
  br label %18

18:                                               ; preds = %16, %13
  ret void
}

; Function Attrs: mustprogress uwtable
define hidden void @_ZN2cv17TrackerGOTURNImpl4initERKNS_11_InputArrayERKNS_5Rect_IiEE(ptr noundef nonnull align 8 dereferenceable(136) %0, ptr noundef nonnull align 8 dereferenceable(24) %1, ptr noundef nonnull align 4 dereferenceable(16) %2) unnamed_addr #0 align 2 personality ptr @__gxx_personality_v0 {
  %4 = alloca ptr, align 8
  %5 = alloca ptr, align 8
  %6 = alloca ptr, align 8
  %7 = alloca %"class.cv::Mat", align 8
  %8 = alloca %"class.cv::Mat", align 8
  %9 = alloca ptr, align 8
  %10 = alloca i32, align 4
  %11 = alloca %"class.cv::Rect_", align 4
  store ptr %0, ptr %4, align 8, !tbaa !16
  store ptr %1, ptr %5, align 8, !tbaa !18
  store ptr %2, ptr %6, align 8, !tbaa !20
  %12 = load ptr, ptr %4, align 8
  call void @llvm.lifetime.start.p0(i64 96, ptr %7) #19
  call void @llvm.lifetime.start.p0(i64 96, ptr %8) #19
  %13 = load ptr, ptr %5, align 8, !tbaa !18
  call void @_ZNK2cv11_InputArray6getMatEi(ptr dead_on_unwind writable sret(%"class.cv::Mat") align 8 %8, ptr noundef nonnull align 8 dereferenceable(24) %13, i32 noundef -1)
  invoke void @_ZNK2cv3Mat5cloneEv(ptr dead_on_unwind writable sret(%"class.cv::Mat") align 8 %7, ptr noundef nonnull align 8 dereferenceable(96) %8)
          to label %14 unwind label %23

14:                                               ; preds = %3
  %15 = getelementptr inbounds nuw %"class.cv::TrackerGOTURNImpl", ptr %12, i32 0, i32 3
  %16 = invoke noundef nonnull align 8 dereferenceable(96) ptr @_ZN2cv3MataSEOS0_(ptr noundef nonnull align 8 dereferenceable(96) %15, ptr noundef nonnull align 8 dereferenceable(96) %7)
          to label %17 unwind label %27

17:                                               ; preds = %14
  call void @_ZN2cv3MatD1Ev(ptr noundef nonnull align 8 dereferenceable(96) %7) #19
  call void @_ZN2cv3MatD1Ev(ptr noundef nonnull align 8 dereferenceable(96) %8) #19
  call void @llvm.lifetime.end.p0(i64 96, ptr %8) #19
  call void @llvm.lifetime.end.p0(i64 96, ptr %7) #19
  %18 = load ptr, ptr %6, align 8, !tbaa !20
  call void @llvm.memcpy.p0.p0.i64(ptr align 4 %11, ptr align 4 %18, i64 16, i1 false), !tbaa.struct !22
  %19 = getelementptr inbounds nuw { i64, i64 }, ptr %11, i32 0, i32 0
  %20 = load i64, ptr %19, align 4
  %21 = getelementptr inbounds nuw { i64, i64 }, ptr %11, i32 0, i32 1
  %22 = load i64, ptr %21, align 4
  call void @_ZN2cv17TrackerGOTURNImpl13setBoudingBoxENS_5Rect_IiEE(ptr noundef nonnull align 8 dereferenceable(136) %12, i64 %20, i64 %22)
  ret void

23:                                               ; preds = %3
  %24 = landingpad { ptr, i32 }
          cleanup
  %25 = extractvalue { ptr, i32 } %24, 0
  store ptr %25, ptr %9, align 8
  %26 = extractvalue { ptr, i32 } %24, 1
  store i32 %26, ptr %10, align 4
  br label %31

27:                                               ; preds = %14
  %28 = landingpad { ptr, i32 }
          cleanup
  %29 = extractvalue { ptr, i32 } %28, 0
  store ptr %29, ptr %9, align 8
  %30 = extractvalue { ptr, i32 } %28, 1
  store i32 %30, ptr %10, align 4
  call void @_ZN2cv3MatD1Ev(ptr noundef nonnull align 8 dereferenceable(96) %7) #19
  br label %31

31:                                               ; preds = %27, %23
  call void @_ZN2cv3MatD1Ev(ptr noundef nonnull align 8 dereferenceable(96) %8) #19
  call void @llvm.lifetime.end.p0(i64 96, ptr %8) #19
  call void @llvm.lifetime.end.p0(i64 96, ptr %7) #19
  br label %32

32:                                               ; preds = %31
  %33 = load ptr, ptr %9, align 8
  %34 = load i32, ptr %10, align 4
  %35 = insertvalue { ptr, i32 } poison, ptr %33, 0
  %36 = insertvalue { ptr, i32 } %35, i32 %34, 1
  resume { ptr, i32 } %36
}