; Function Attrs: mustprogress uwtable
define hidden void @_ZN2cv17TrackerGOTURNImpl4initERKNS_11_InputArrayERKNS_5Rect_IiEE(ptr noundef nonnull align 8 dereferenceable(136) %0, ptr noundef nonnull align 8 dereferenceable(24) %1, ptr noundef nonnull readonly align 4 captures(none) dereferenceable(16) %2) unnamed_addr #0 align 2 personality ptr @__gxx_personality_v0 {
  %4 = alloca %"class.cv::Mat", align 8
  %5 = alloca %"class.cv::Mat", align 8
  call void @llvm.lifetime.start.p0(i64 96, ptr nonnull %4) #19
  call void @llvm.lifetime.start.p0(i64 96, ptr nonnull %5) #19
  %6 = tail call noundef i32 @_ZNK2cv11_InputArray4kindEv(ptr noundef nonnull align 8 dereferenceable(24) %1), !noalias !16
  %7 = icmp eq i32 %6, 65536
  br i1 %7, label %8, label %11

8:                                                ; preds = %3
  %9 = getelementptr inbounds nuw i8, ptr %1, i64 8
  %10 = load ptr, ptr %9, align 8, !tbaa !19, !noalias !16
  call void @_ZN2cv3MatC1ERKS0_(ptr noundef nonnull align 8 dereferenceable(96) %5, ptr noundef nonnull align 8 dereferenceable(96) %10)
  br label %_ZNK2cv11_InputArray6getMatEi.exit

11:                                               ; preds = %3
  call void @_ZNK2cv11_InputArray7getMat_Ei(ptr dead_on_unwind nonnull writable sret(%"class.cv::Mat") align 8 %5, ptr noundef nonnull align 8 dereferenceable(24) %1, i32 noundef -1)
  br label %_ZNK2cv11_InputArray6getMatEi.exit

_ZNK2cv11_InputArray6getMatEi.exit:               ; preds = %8, %11
  invoke void @_ZNK2cv3Mat5cloneEv(ptr dead_on_unwind nonnull writable sret(%"class.cv::Mat") align 8 %4, ptr noundef nonnull align 8 dereferenceable(96) %5)
          to label %12 unwind label %16

12:                                               ; preds = %_ZNK2cv11_InputArray6getMatEi.exit
  %13 = getelementptr inbounds nuw i8, ptr %0, i64 40
  %14 = invoke noundef nonnull align 8 dereferenceable(96) ptr @_ZN2cv3MataSEOS0_(ptr noundef nonnull align 8 dereferenceable(96) %13, ptr noundef nonnull align 8 dereferenceable(96) %4)
          to label %15 unwind label %18

15:                                               ; preds = %12
  call void @_ZN2cv3MatD1Ev(ptr noundef nonnull align 8 dereferenceable(96) %4) #19
  call void @_ZN2cv3MatD1Ev(ptr noundef nonnull align 8 dereferenceable(96) %5) #19
  call void @llvm.lifetime.end.p0(i64 96, ptr nonnull %5) #19
  call void @llvm.lifetime.end.p0(i64 96, ptr nonnull %4) #19
  %.sroa.0.0.copyload = load i64, ptr %2, align 4
  %.sroa.2.0..sroa_idx = getelementptr inbounds nuw i8, ptr %2, i64 8
  %.sroa.2.0.copyload = load i64, ptr %.sroa.2.0..sroa_idx, align 4
  call void @_ZN2cv17TrackerGOTURNImpl13setBoudingBoxENS_5Rect_IiEE(ptr noundef nonnull align 8 dereferenceable(136) %0, i64 %.sroa.0.0.copyload, i64 %.sroa.2.0.copyload)
  ret void

16:                                               ; preds = %_ZNK2cv11_InputArray6getMatEi.exit
  %17 = landingpad { ptr, i32 }
          cleanup
  br label %20

18:                                               ; preds = %12
  %19 = landingpad { ptr, i32 }
          cleanup
  call void @_ZN2cv3MatD1Ev(ptr noundef nonnull align 8 dereferenceable(96) %4) #19
  br label %20

20:                                               ; preds = %18, %16
  %.pn = phi { ptr, i32 } [ %19, %18 ], [ %17, %16 ]
  call void @_ZN2cv3MatD1Ev(ptr noundef nonnull align 8 dereferenceable(96) %5) #19
  call void @llvm.lifetime.end.p0(i64 96, ptr nonnull %5) #19
  call void @llvm.lifetime.end.p0(i64 96, ptr nonnull %4) #19
  resume { ptr, i32 } %.pn
}